; Function Attrs: mustprogress nofree norecurse nosync nounwind willreturn memory(read, argmem: readwrite, inaccessiblemem: none) uwtable
define internal fastcc noundef zeroext i1 @_ZN32pxrInternal_v0_24__pxrReserved__21pxr_double_conversionL7AdvanceIPKtEEbPT_tiRS4_(ptr nocapture noundef %0, i16 noundef zeroext %1, i32 noundef %2, ptr nocapture noundef nonnull readonly align 8 dereferenceable(8) %3) unnamed_addr #1 {
  %5 = icmp eq i16 %1, 0
  %6 = load ptr, ptr %0, align 8
  br i1 %5, label %7, label %11

7:                                                ; preds = %4
  %8 = getelementptr inbounds i8, ptr %6, i64 2
  store ptr %8, ptr %0, align 8
  %9 = load ptr, ptr %3, align 8
  %10 = icmp eq ptr %8, %9
  br label %55

11:                                               ; preds = %4
  %12 = load i16, ptr %6, align 2
  %13 = zext i16 %12 to i32
  %14 = add nsw i32 %13, -48
  %or.cond.i = icmp ult i32 %14, 10
  %15 = add nuw nsw i32 %2, 48
  %16 = icmp sgt i32 %15, %13
  %or.cond19.i = select i1 %or.cond.i, i1 %16, i1 false
  br i1 %or.cond19.i, label %_ZN32pxrInternal_v0_24__pxrReserved__21pxr_double_conversionL7isDigitEii.exit.thread, label %17

17:                                               ; preds = %11
  %18 = icmp sgt i32 %2, 10
  %19 = icmp ugt i16 %12, 96
  %or.cond3.i = and i1 %18, %19
  %20 = add nuw nsw i32 %2, 87
  %21 = icmp sgt i32 %20, %13
  %or.cond21.i = select i1 %or.cond3.i, i1 %21, i1 false
  br i1 %or.cond21.i, label %_ZN32pxrInternal_v0_24__pxrReserved__21pxr_double_conversionL7isDigitEii.exit.thread, label %22

22:                                               ; preds = %17
  %23 = icmp ugt i16 %12, 64
  %or.cond5.i = and i1 %18, %23
  %24 = add nuw nsw i32 %2, 55
  %25 = icmp ugt i32 %24, %13
  %or.cond = select i1 %or.cond5.i, i1 %25, i1 false
  br i1 %or.cond, label %_ZN32pxrInternal_v0_24__pxrReserved__21pxr_double_conversionL7isDigitEii.exit.thread, label %_ZN32pxrInternal_v0_24__pxrReserved__21pxr_double_conversionL7isDigitEii.exit.thread31

_ZN32pxrInternal_v0_24__pxrReserved__21pxr_double_conversionL7isDigitEii.exit.thread31: ; preds = %22
  %26 = getelementptr inbounds i8, ptr %6, i64 2
  store ptr %26, ptr %0, align 8
  %27 = load ptr, ptr %3, align 8
  %28 = icmp eq ptr %26, %27
  br label %55

_ZN32pxrInternal_v0_24__pxrReserved__21pxr_double_conversionL7isDigitEii.exit.thread: ; preds = %22, %17, %11
  %29 = getelementptr inbounds i8, ptr %6, i64 2
  store ptr %29, ptr %0, align 8
  %30 = load ptr, ptr %3, align 8
  %31 = icmp eq ptr %29, %30
  br i1 %31, label %55, label %32

32:                                               ; preds = %_ZN32pxrInternal_v0_24__pxrReserved__21pxr_double_conversionL7isDigitEii.exit.thread
  %33 = getelementptr inbounds i8, ptr %6, i64 4
  %34 = icmp eq ptr %33, %30
  br i1 %34, label %55, label %35

35:                                               ; preds = %32
  %36 = load i16, ptr %29, align 2
  %37 = icmp eq i16 %36, %1
  br i1 %37, label %38, label %_ZN32pxrInternal_v0_24__pxrReserved__21pxr_double_conversionL7isDigitEii.exit30.thread32

38:                                               ; preds = %35
  %39 = load i16, ptr %33, align 2
  %40 = zext i16 %39 to i32
  %41 = add nsw i32 %40, -48
  %or.cond.i25 = icmp ult i32 %41, 10
  %42 = icmp sgt i32 %15, %40
  %or.cond19.i26 = select i1 %or.cond.i25, i1 %42, i1 false
  br i1 %or.cond19.i26, label %_ZN32pxrInternal_v0_24__pxrReserved__21pxr_double_conversionL7isDigitEii.exit30.thread, label %43

43:                                               ; preds = %38
  %44 = icmp sgt i32 %2, 10
  %45 = icmp ugt i16 %39, 96
  %or.cond3.i27 = and i1 %44, %45
  %46 = add nuw nsw i32 %2, 87
  %47 = icmp ugt i32 %46, %40
  %or.cond21.i28 = select i1 %or.cond3.i27, i1 %47, i1 false
  br i1 %or.cond21.i28, label %_ZN32pxrInternal_v0_24__pxrReserved__21pxr_double_conversionL7isDigitEii.exit30.thread, label %48

48:                                               ; preds = %43
  %49 = icmp ugt i16 %39, 64
  %or.cond5.i29 = and i1 %44, %49
  %50 = add nuw nsw i32 %2, 55
  %51 = icmp ugt i32 %50, %40
  %or.cond35 = select i1 %or.cond5.i29, i1 %51, i1 false
  br i1 %or.cond35, label %_ZN32pxrInternal_v0_24__pxrReserved__21pxr_double_conversionL7isDigitEii.exit30.thread, label %_ZN32pxrInternal_v0_24__pxrReserved__21pxr_double_conversionL7isDigitEii.exit30.thread32

_ZN32pxrInternal_v0_24__pxrReserved__21pxr_double_conversionL7isDigitEii.exit30.thread: ; preds = %48, %43, %38
  store ptr %33, ptr %0, align 8
  %.pre = load ptr, ptr %3, align 8
  br label %_ZN32pxrInternal_v0_24__pxrReserved__21pxr_double_conversionL7isDigitEii.exit30.thread32

_ZN32pxrInternal_v0_24__pxrReserved__21pxr_double_conversionL7isDigitEii.exit30.thread32: ; preds = %48, %_ZN32pxrInternal_v0_24__pxrReserved__21pxr_double_conversionL7isDigitEii.exit30.thread, %35
  %52 = phi ptr [ %30, %48 ], [ %.pre, %_ZN32pxrInternal_v0_24__pxrReserved__21pxr_double_conversionL7isDigitEii.exit30.thread ], [ %30, %35 ]
  %53 = phi ptr [ %29, %48 ], [ %33, %_ZN32pxrInternal_v0_24__pxrReserved__21pxr_double_conversionL7isDigitEii.exit30.thread ], [ %29, %35 ]
  %54 = icmp eq ptr %53, %52
  br label %55

55:                                               ; preds = %32, %_ZN32pxrInternal_v0_24__pxrReserved__21pxr_double_conversionL7isDigitEii.exit.thread, %_ZN32pxrInternal_v0_24__pxrReserved__21pxr_double_conversionL7isDigitEii.exit30.thread32, %_ZN32pxrInternal_v0_24__pxrReserved__21pxr_double_conversionL7isDigitEii.exit.thread31, %7
  %.0 = phi i1 [ %10, %7 ], [ %54, %_ZN32pxrInternal_v0_24__pxrReserved__21pxr_double_conversionL7isDigitEii.exit30.thread32 ], [ %28, %_ZN32pxrInternal_v0_24__pxrReserved__21pxr_double_conversionL7isDigitEii.exit.thread31 ], [ true, %_ZN32pxrInternal_v0_24__pxrReserved__21pxr_double_conversionL7isDigitEii.exit.thread ], [ false, %32 ]
  ret i1 %.0
}